; Listing generated by Microsoft (R) Optimizing Compiler Version 19.44.35228.0 

include listing.inc

INCLUDELIB LIBCMT
INCLUDELIB OLDNAMES

PUBLIC	__ptbl_vec__zoo_C_
PUBLIC	__vtbl__4Bird__zoo_C
PUBLIC	__vtbl__3Dog__zoo_C
PUBLIC	__vtbl__6Animal__zoo_C
_DATA	SEGMENT
COMM	__cfront_version_303_xxxxxxxx:BYTE
_DATA	ENDS
_DATA	SEGMENT
__ptbl_vec__zoo_C_ DQ FLAT:__vtbl__6Animal__zoo_C
	DQ	FLAT:__vtbl__3Dog__zoo_C
	DQ	FLAT:__vtbl__4Bird__zoo_C
	ORG $+8
__vtbl__4Bird__zoo_C DW 00H
	DW	00H
	ORG $+4
	DQ	0000000000000000H
	DW	00H
	DW	00H
	ORG $+4
	DQ	FLAT:__dt__4BirdFv
	DW	00H
	DW	00H
	ORG $+4
	DQ	FLAT:sound__4BirdFv
	DW	00H
	DW	00H
	ORG $+4
	DQ	FLAT:kind__4BirdFv
	DW	00H
	DW	00H
	ORG $+4
	DQ	0000000000000000H
__vtbl__3Dog__zoo_C DW 00H
	DW	00H
	ORG $+4
	DQ	0000000000000000H
	DW	00H
	DW	00H
	ORG $+4
	DQ	FLAT:__dt__3DogFv
	DW	00H
	DW	00H
	ORG $+4
	DQ	FLAT:sound__3DogFv
	DW	00H
	DW	00H
	ORG $+4
	DQ	FLAT:kind__3DogFv
	DW	00H
	DW	00H
	ORG $+4
	DQ	0000000000000000H
__vtbl__6Animal__zoo_C DW 00H
	DW	00H
	ORG $+4
	DQ	0000000000000000H
	DW	00H
	DW	00H
	ORG $+4
	DQ	FLAT:__dt__6AnimalFv
	DW	00H
	DW	00H
	ORG $+4
	DQ	FLAT:sound__6AnimalFv
	DW	00H
	DW	00H
	ORG $+4
	DQ	FLAT:kind__6AnimalFv
	DW	00H
	DW	00H
	ORG $+4
	DQ	0000000000000000H
_DATA	ENDS
PUBLIC	main
PUBLIC	__real@3ff0000000000000
PUBLIC	__real@4000000000000000
PUBLIC	__real@4008000000000000
PUBLIC	__real@4010000000000000
EXTRN	__nw__FUl:PROC
EXTRN	__dl__FPv:PROC
EXTRN	printf:PROC
EXTRN	_main:PROC
EXTRN	__GSHandlerCheck:PROC
EXTRN	__security_check_cookie:PROC
EXTRN	__security_cookie:QWORD
EXTRN	_fltused:DWORD
pdata	SEGMENT
$pdata$__dt__6AnimalFv DD imagerel __dt__6AnimalFv
	DD	imagerel __dt__6AnimalFv+85
	DD	imagerel $unwind$__dt__6AnimalFv
$pdata$main DD	imagerel $LN14
	DD	imagerel $LN14+1065
	DD	imagerel $unwind$main
$pdata$__dt__4BirdFv DD imagerel __dt__4BirdFv
	DD	imagerel __dt__4BirdFv+122
	DD	imagerel $unwind$__dt__4BirdFv
$pdata$__dt__3DogFv DD imagerel __dt__3DogFv
	DD	imagerel __dt__3DogFv+122
	DD	imagerel $unwind$__dt__3DogFv
pdata	ENDS
;	COMDAT __real@4010000000000000
CONST	SEGMENT
__real@4010000000000000 DQ 04010000000000000r	; 4
CONST	ENDS
;	COMDAT __real@4008000000000000
CONST	SEGMENT
__real@4008000000000000 DQ 04008000000000000r	; 3
CONST	ENDS
;	COMDAT __real@4000000000000000
CONST	SEGMENT
__real@4000000000000000 DQ 04000000000000000r	; 2
CONST	ENDS
;	COMDAT __real@3ff0000000000000
CONST	SEGMENT
__real@3ff0000000000000 DQ 03ff0000000000000r	; 1
CONST	ENDS
_DATA	SEGMENT
$SG8012	DB	'A %-4s has %d legs and says ''%s''', 0aH, 00H
	ORG $+6
$SG8013	DB	'a+b = (%g, %g)   a.b = %g', 0aH, 00H
	ORG $+1
$SG8060	DB	'bird', 00H
	ORG $+3
$SG8064	DB	'tweet', 00H
	ORG $+2
$SG8085	DB	'dog', 00H
$SG8089	DB	'woof', 00H
	ORG $+3
$SG8093	DB	'animal', 00H
	ORG $+1
$SG8097	DB	'...', 00H
_DATA	ENDS
voltbl	SEGMENT
_volmd	DD	0ffffffffH
	DDSymXIndex: 	FLAT:main
	DD	014H
	DD	040fH
voltbl	ENDS
xdata	SEGMENT
$unwind$__dt__6AnimalFv DD 010d01H
	DD	0420dH
$unwind$main DD	041c19H
	DD	01f010aH
	DD	060027003H
	DD	imagerel __GSHandlerCheck
	DD	0e8H
$unwind$__dt__4BirdFv DD 010d01H
	DD	0420dH
$unwind$__dt__3DogFv DD 010d01H
	DD	0420dH
xdata	ENDS
; Function compile flags: /Odtp
_TEXT	SEGMENT
__0this$ = 8
kind__3DogFv PROC
; File C:\Users\Diana\pg\cfront-3\zz.c
; Line 193
	mov	QWORD PTR [rsp+8], rcx
	lea	rax, OFFSET FLAT:$SG8085
; Line 194
	ret	0
kind__3DogFv ENDP
_TEXT	ENDS
; Function compile flags: /Odtp
_TEXT	SEGMENT
__0this$ = 8
sound__3DogFv PROC
; File C:\Users\Diana\pg\cfront-3\zz.c
; Line 196
	mov	QWORD PTR [rsp+8], rcx
	lea	rax, OFFSET FLAT:$SG8089
; Line 198
	ret	0
sound__3DogFv ENDP
_TEXT	ENDS
; Function compile flags: /Odtp
_TEXT	SEGMENT
__0this$ = 48
__0__free$ = 56
__dt__3DogFv PROC
; File C:\Users\Diana\pg\cfront-3\zz.c
; Line 183
	mov	DWORD PTR [rsp+16], edx
	mov	QWORD PTR [rsp+8], rcx
	sub	rsp, 40					; 00000028H
; Line 184
	cmp	QWORD PTR __0this$[rsp], 0
	je	SHORT $LN2@dt__3DogFv
	mov	eax, 8
	imul	rax, rax, 1
	lea	rcx, OFFSET FLAT:__ptbl_vec__zoo_C_
	mov	rdx, QWORD PTR __0this$[rsp]
	mov	rax, QWORD PTR [rcx+rax]
	mov	QWORD PTR [rdx+8], rax
; Line 186
	cmp	QWORD PTR __0this$[rsp], 0
	je	SHORT $LN3@dt__3DogFv
	cmp	QWORD PTR __0this$[rsp], 0
	je	SHORT $LN8@dt__3DogFv
	mov	eax, 8
	imul	rax, rax, 0
	lea	rcx, OFFSET FLAT:__ptbl_vec__zoo_C_
	mov	rdx, QWORD PTR __0this$[rsp]
	mov	rax, QWORD PTR [rcx+rax]
	mov	QWORD PTR [rdx+8], rax
$LN8@dt__3DogFv:
; Line 189
	mov	eax, DWORD PTR __0__free$[rsp]
	and	eax, 1
	test	eax, eax
	je	SHORT $LN4@dt__3DogFv
	mov	rcx, QWORD PTR __0this$[rsp]
	call	__dl__FPv
	npad	1
$LN4@dt__3DogFv:
$LN3@dt__3DogFv:
$LN2@dt__3DogFv:
; Line 191
	add	rsp, 40					; 00000028H
	ret	0
__dt__3DogFv ENDP
_TEXT	ENDS
; Function compile flags: /Odtp
_TEXT	SEGMENT
__0this$ = 8
kind__4BirdFv PROC
; File C:\Users\Diana\pg\cfront-3\zz.c
; Line 175
	mov	QWORD PTR [rsp+8], rcx
	lea	rax, OFFSET FLAT:$SG8060
; Line 176
	ret	0
kind__4BirdFv ENDP
_TEXT	ENDS
; Function compile flags: /Odtp
_TEXT	SEGMENT
__0this$ = 8
sound__4BirdFv PROC
; File C:\Users\Diana\pg\cfront-3\zz.c
; Line 178
	mov	QWORD PTR [rsp+8], rcx
	lea	rax, OFFSET FLAT:$SG8064
; Line 180
	ret	0
sound__4BirdFv ENDP
_TEXT	ENDS
; Function compile flags: /Odtp
_TEXT	SEGMENT
__0this$ = 48
__0__free$ = 56
__dt__4BirdFv PROC
; File C:\Users\Diana\pg\cfront-3\zz.c
; Line 165
	mov	DWORD PTR [rsp+16], edx
	mov	QWORD PTR [rsp+8], rcx
	sub	rsp, 40					; 00000028H
; Line 166
	cmp	QWORD PTR __0this$[rsp], 0
	je	SHORT $LN2@dt__4BirdF
	mov	eax, 8
	imul	rax, rax, 2
	lea	rcx, OFFSET FLAT:__ptbl_vec__zoo_C_
	mov	rdx, QWORD PTR __0this$[rsp]
	mov	rax, QWORD PTR [rcx+rax]
	mov	QWORD PTR [rdx+8], rax
; Line 168
	cmp	QWORD PTR __0this$[rsp], 0
	je	SHORT $LN3@dt__4BirdF
	cmp	QWORD PTR __0this$[rsp], 0
	je	SHORT $LN8@dt__4BirdF
	mov	eax, 8
	imul	rax, rax, 0
	lea	rcx, OFFSET FLAT:__ptbl_vec__zoo_C_
	mov	rdx, QWORD PTR __0this$[rsp]
	mov	rax, QWORD PTR [rcx+rax]
	mov	QWORD PTR [rdx+8], rax
$LN8@dt__4BirdF:
; Line 171
	mov	eax, DWORD PTR __0__free$[rsp]
	and	eax, 1
	test	eax, eax
	je	SHORT $LN4@dt__4BirdF
	mov	rcx, QWORD PTR __0this$[rsp]
	call	__dl__FPv
	npad	1
$LN4@dt__4BirdF:
$LN3@dt__4BirdF:
$LN2@dt__4BirdF:
; Line 173
	add	rsp, 40					; 00000028H
	ret	0
__dt__4BirdFv ENDP
_TEXT	ENDS
; Function compile flags: /Odtp
_TEXT	SEGMENT
__1i$1 = 32
__0__X9$2 = 40
__0__X10$3 = 48
__0__X3$4 = 56
__0__X5$5 = 64
__1zoo$6 = 72
tv78 = 88
tv130 = 92
tv83 = 96
tv135 = 104
tv213 = 112
tv146 = 120
tv212 = 128
__2__X7$7 = 136
__2__X8$8 = 144
__1a$9 = 152
__1b$10 = 168
__2__X11$11 = 184
__0__X__V600azwmaaibmo$12 = 200
__1c$13 = 216
__$ArrayPad$ = 232
main	PROC
; File C:\Users\Diana\pg\cfront-3\zz.c
; Line 75
$LN14:
	push	rsi
	push	rdi
	sub	rsp, 248				; 000000f8H
	mov	rax, QWORD PTR __security_cookie
	xor	rax, rsp
	mov	QWORD PTR __$ArrayPad$[rsp], rax
	call	_main
	npad	1
; Line 87
	mov	QWORD PTR __0__X9$2[rsp], 0
	cmp	QWORD PTR __0__X9$2[rsp], 0
	jne	SHORT $LN6@main
	mov	ecx, 16
	call	__nw__FUl
	mov	QWORD PTR __0__X9$2[rsp], rax
	cmp	QWORD PTR __0__X9$2[rsp], 0
	jne	SHORT $LN6@main
	mov	QWORD PTR tv83[rsp], 0
	jmp	$LN9@main
$LN6@main:
	mov	rax, QWORD PTR __0__X9$2[rsp]
	mov	QWORD PTR __0__X3$4[rsp], rax
	cmp	QWORD PTR __0__X3$4[rsp], 0
	jne	SHORT $LN7@main
	mov	ecx, 16
	call	__nw__FUl
	mov	QWORD PTR __0__X3$4[rsp], rax
	cmp	QWORD PTR __0__X3$4[rsp], 0
	jne	SHORT $LN7@main
	mov	DWORD PTR tv78[rsp], 0
	jmp	SHORT $LN8@main
$LN7@main:
	mov	eax, 8
	imul	rax, rax, 0
	lea	rcx, OFFSET FLAT:__ptbl_vec__zoo_C_
	mov	rdx, QWORD PTR __0__X3$4[rsp]
	mov	rax, QWORD PTR [rcx+rax]
	mov	QWORD PTR [rdx+8], rax
	mov	rax, QWORD PTR __0__X3$4[rsp]
	mov	DWORD PTR [rax], 4
	mov	DWORD PTR tv78[rsp], 4
$LN8@main:
	mov	rax, QWORD PTR __0__X3$4[rsp]
	mov	QWORD PTR __0__X9$2[rsp], rax
	mov	eax, 8
	imul	rax, rax, 1
	lea	rcx, OFFSET FLAT:__ptbl_vec__zoo_C_
	mov	rdx, QWORD PTR __0__X9$2[rsp]
	mov	rax, QWORD PTR [rcx+rax]
	mov	QWORD PTR [rdx+8], rax
	mov	rax, QWORD PTR __0__X9$2[rsp]
	mov	rax, QWORD PTR [rax+8]
	mov	QWORD PTR tv83[rsp], rax
$LN9@main:
	mov	eax, 8
	imul	rax, rax, 0
	mov	rcx, QWORD PTR __0__X9$2[rsp]
	mov	QWORD PTR __1zoo$6[rsp+rax], rcx
; Line 91
	mov	QWORD PTR __0__X10$3[rsp], 0
	cmp	QWORD PTR __0__X10$3[rsp], 0
	jne	SHORT $LN10@main
	mov	ecx, 16
	call	__nw__FUl
	mov	QWORD PTR __0__X10$3[rsp], rax
	cmp	QWORD PTR __0__X10$3[rsp], 0
	jne	SHORT $LN10@main
	mov	QWORD PTR tv135[rsp], 0
	jmp	$LN13@main
$LN10@main:
	mov	rax, QWORD PTR __0__X10$3[rsp]
	mov	QWORD PTR __0__X5$5[rsp], rax
	cmp	QWORD PTR __0__X5$5[rsp], 0
	jne	SHORT $LN11@main
	mov	ecx, 16
	call	__nw__FUl
	mov	QWORD PTR __0__X5$5[rsp], rax
	cmp	QWORD PTR __0__X5$5[rsp], 0
	jne	SHORT $LN11@main
	mov	DWORD PTR tv130[rsp], 0
	jmp	SHORT $LN12@main
$LN11@main:
	mov	eax, 8
	imul	rax, rax, 0
	lea	rcx, OFFSET FLAT:__ptbl_vec__zoo_C_
	mov	rdx, QWORD PTR __0__X5$5[rsp]
	mov	rax, QWORD PTR [rcx+rax]
	mov	QWORD PTR [rdx+8], rax
	mov	rax, QWORD PTR __0__X5$5[rsp]
	mov	DWORD PTR [rax], 2
	mov	DWORD PTR tv130[rsp], 2
$LN12@main:
	mov	rax, QWORD PTR __0__X5$5[rsp]
	mov	QWORD PTR __0__X10$3[rsp], rax
	mov	eax, 8
	imul	rax, rax, 2
	lea	rcx, OFFSET FLAT:__ptbl_vec__zoo_C_
	mov	rdx, QWORD PTR __0__X10$3[rsp]
	mov	rax, QWORD PTR [rcx+rax]
	mov	QWORD PTR [rdx+8], rax
	mov	rax, QWORD PTR __0__X10$3[rsp]
	mov	rax, QWORD PTR [rax+8]
	mov	QWORD PTR tv135[rsp], rax
$LN13@main:
	mov	eax, 8
	imul	rax, rax, 1
	mov	rcx, QWORD PTR __0__X10$3[rsp]
	mov	QWORD PTR __1zoo$6[rsp+rax], rcx
; Line 97
	mov	DWORD PTR __1i$1[rsp], 0
; Line 99
	jmp	SHORT $LN4@main
$LN2@main:
	mov	eax, DWORD PTR __1i$1[rsp]
	inc	eax
	mov	DWORD PTR __1i$1[rsp], eax
$LN4@main:
	cmp	DWORD PTR __1i$1[rsp], 2
	jge	$LN3@main
; Line 100
	movsxd	rax, DWORD PTR __1i$1[rsp]
	movsxd	rcx, DWORD PTR __1i$1[rsp]
	mov	rcx, QWORD PTR __1zoo$6[rsp+rcx*8]
	mov	edx, 16
	imul	rdx, rdx, 2
	mov	rcx, QWORD PTR [rcx+8]
	movsx	rcx, WORD PTR [rcx+rdx]
	add	rcx, QWORD PTR __1zoo$6[rsp+rax*8]
	mov	rax, rcx
	movsxd	rcx, DWORD PTR __1i$1[rsp]
	mov	rcx, QWORD PTR __1zoo$6[rsp+rcx*8]
	mov	edx, 16
	imul	rdx, rdx, 2
	mov	rcx, QWORD PTR [rcx+8]
	mov	QWORD PTR tv213[rsp], rcx
	mov	rcx, rax
	mov	rax, QWORD PTR tv213[rsp]
	call	QWORD PTR [rax+rdx+8]
	mov	QWORD PTR tv146[rsp], rax
	movsxd	rcx, DWORD PTR __1i$1[rsp]
	mov	rcx, QWORD PTR __1zoo$6[rsp+rcx*8]
	mov	QWORD PTR tv212[rsp], rcx
	movsxd	rdx, DWORD PTR __1i$1[rsp]
	movsxd	r8, DWORD PTR __1i$1[rsp]
	mov	r8, QWORD PTR __1zoo$6[rsp+r8*8]
	mov	r9d, 16
	imul	r9, r9, 3
	mov	r8, QWORD PTR [r8+8]
	movsx	r8, WORD PTR [r8+r9]
	add	r8, QWORD PTR __1zoo$6[rsp+rdx*8]
	mov	rdx, r8
	movsxd	r8, DWORD PTR __1i$1[rsp]
	mov	r8, QWORD PTR __1zoo$6[rsp+r8*8]
	mov	r9d, 16
	imul	r9, r9, 3
	mov	r8, QWORD PTR [r8+8]
	mov	rcx, rdx
	call	QWORD PTR [r8+r9+8]
	mov	rcx, QWORD PTR tv146[rsp]
	mov	r9, rcx
	mov	rcx, QWORD PTR tv212[rsp]
	mov	r8d, DWORD PTR [rcx]
	mov	rdx, rax
	lea	rcx, OFFSET FLAT:$SG8012
	call	printf
	npad	1
	jmp	$LN2@main
$LN3@main:
; Line 117
	movsd	xmm0, QWORD PTR __real@3ff0000000000000
	movsd	QWORD PTR __1a$9[rsp], xmm0
	movsd	xmm0, QWORD PTR __real@4000000000000000
	movsd	QWORD PTR __1a$9[rsp+8], xmm0
; Line 120
	movsd	xmm0, QWORD PTR __real@4008000000000000
	movsd	QWORD PTR __1b$10[rsp], xmm0
	movsd	xmm0, QWORD PTR __real@4010000000000000
	movsd	QWORD PTR __1b$10[rsp+8], xmm0
; Line 122
	lea	rax, QWORD PTR __2__X11$11[rsp]
	lea	rcx, QWORD PTR __1b$10[rsp]
	mov	rdi, rax
	mov	rsi, rcx
	mov	ecx, 16
	rep movsb
	movsd	xmm0, QWORD PTR __1a$9[rsp]
	addsd	xmm0, QWORD PTR __2__X11$11[rsp]
	movsd	QWORD PTR __2__X7$7[rsp], xmm0
	movsd	xmm0, QWORD PTR __1a$9[rsp+8]
	addsd	xmm0, QWORD PTR __2__X11$11[rsp+8]
	movsd	QWORD PTR __2__X8$8[rsp], xmm0
	movsd	xmm0, QWORD PTR __2__X7$7[rsp]
	movsd	QWORD PTR __0__X__V600azwmaaibmo$12[rsp], xmm0
	movsd	xmm0, QWORD PTR __2__X8$8[rsp]
	movsd	QWORD PTR __0__X__V600azwmaaibmo$12[rsp+8], xmm0
	lea	rax, QWORD PTR __1c$13[rsp]
	lea	rcx, QWORD PTR __0__X__V600azwmaaibmo$12[rsp]
	mov	rdi, rax
	mov	rsi, rcx
	mov	ecx, 16
	rep movsb
; Line 125
	movsd	xmm0, QWORD PTR __1a$9[rsp]
	mulsd	xmm0, QWORD PTR __1b$10[rsp]
	movsd	xmm1, QWORD PTR __1a$9[rsp+8]
	mulsd	xmm1, QWORD PTR __1b$10[rsp+8]
	addsd	xmm0, xmm1
	movaps	xmm3, xmm0
	movq	r9, xmm3
	movsd	xmm2, QWORD PTR __1c$13[rsp+8]
	movq	r8, xmm2
	movsd	xmm1, QWORD PTR __1c$13[rsp]
	movq	rdx, xmm1
	lea	rcx, OFFSET FLAT:$SG8013
	call	printf
; Line 128
	xor	eax, eax
; Line 136
	mov	rcx, QWORD PTR __$ArrayPad$[rsp]
	xor	rcx, rsp
	call	__security_check_cookie
	add	rsp, 248				; 000000f8H
	pop	rdi
	pop	rsi
	ret	0
main	ENDP
_TEXT	ENDS
; Function compile flags: /Odtp
_TEXT	SEGMENT
__0this$ = 48
__0__free$ = 56
__dt__6AnimalFv PROC
; File C:\Users\Diana\pg\cfront-3\zz.c
; Line 209
	mov	DWORD PTR [rsp+16], edx
	mov	QWORD PTR [rsp+8], rcx
	sub	rsp, 40					; 00000028H
; Line 210
	cmp	QWORD PTR __0this$[rsp], 0
	je	SHORT $LN2@dt__6Anima
; Line 211
	mov	eax, 8
	imul	rax, rax, 0
	lea	rcx, OFFSET FLAT:__ptbl_vec__zoo_C_
	mov	rdx, QWORD PTR __0this$[rsp]
	mov	rax, QWORD PTR [rcx+rax]
	mov	QWORD PTR [rdx+8], rax
; Line 213
	cmp	QWORD PTR __0this$[rsp], 0
	je	SHORT $LN3@dt__6Anima
	mov	eax, DWORD PTR __0__free$[rsp]
	and	eax, 1
	test	eax, eax
	je	SHORT $LN4@dt__6Anima
	mov	rcx, QWORD PTR __0this$[rsp]
	call	__dl__FPv
	npad	1
$LN4@dt__6Anima:
$LN3@dt__6Anima:
$LN2@dt__6Anima:
; Line 215
	add	rsp, 40					; 00000028H
	ret	0
__dt__6AnimalFv ENDP
_TEXT	ENDS
; Function compile flags: /Odtp
_TEXT	SEGMENT
__0this$ = 8
sound__6AnimalFv PROC
; File C:\Users\Diana\pg\cfront-3\zz.c
; Line 204
	mov	QWORD PTR [rsp+8], rcx
	lea	rax, OFFSET FLAT:$SG8097
; Line 206
	ret	0
sound__6AnimalFv ENDP
_TEXT	ENDS
; Function compile flags: /Odtp
_TEXT	SEGMENT
__0this$ = 8
kind__6AnimalFv PROC
; File C:\Users\Diana\pg\cfront-3\zz.c
; Line 200
	mov	QWORD PTR [rsp+8], rcx
	lea	rax, OFFSET FLAT:$SG8093
; Line 202
	ret	0
kind__6AnimalFv ENDP
_TEXT	ENDS
END
