; Listing generated by Microsoft (R) Optimizing Compiler Version 19.44.35228.0 

include listing.inc

INCLUDELIB LIBCMT
INCLUDELIB OLDNAMES

PUBLIC	__ptbl_vec__zoo_C_
PUBLIC	__vtbl__4Bird__zoo_C
PUBLIC	__vtbl__3Dog__zoo_C
PUBLIC	__vtbl__6Animal__zoo_C
_DATA	SEGMENT
COMM	__cfront_version_303_xxxxxxxx:BYTE
_DATA	ENDS
_DATA	SEGMENT
__ptbl_vec__zoo_C_ DQ FLAT:__vtbl__6Animal__zoo_C
	DQ	FLAT:__vtbl__3Dog__zoo_C
	DQ	FLAT:__vtbl__4Bird__zoo_C
	ORG $+8
__vtbl__4Bird__zoo_C DW 00H
	DW	00H
	ORG $+4
	DQ	0000000000000000H
	DW	00H
	DW	00H
	ORG $+4
	DQ	FLAT:__dt__4BirdFv
	DW	00H
	DW	00H
	ORG $+4
	DQ	FLAT:sound__4BirdFv
	DW	00H
	DW	00H
	ORG $+4
	DQ	FLAT:kind__4BirdFv
	DW	00H
	DW	00H
	ORG $+4
	DQ	0000000000000000H
__vtbl__3Dog__zoo_C DW 00H
	DW	00H
	ORG $+4
	DQ	0000000000000000H
	DW	00H
	DW	00H
	ORG $+4
	DQ	FLAT:__dt__3DogFv
	DW	00H
	DW	00H
	ORG $+4
	DQ	FLAT:sound__3DogFv
	DW	00H
	DW	00H
	ORG $+4
	DQ	FLAT:kind__3DogFv
	DW	00H
	DW	00H
	ORG $+4
	DQ	0000000000000000H
__vtbl__6Animal__zoo_C DW 00H
	DW	00H
	ORG $+4
	DQ	0000000000000000H
	DW	00H
	DW	00H
	ORG $+4
	DQ	FLAT:__dt__6AnimalFv
	DW	00H
	DW	00H
	ORG $+4
	DQ	FLAT:sound__6AnimalFv
	DW	00H
	DW	00H
	ORG $+4
	DQ	FLAT:kind__6AnimalFv
	DW	00H
	DW	00H
	ORG $+4
	DQ	0000000000000000H
_DATA	ENDS
PUBLIC	main
PUBLIC	??_C@_0CC@BGFEADKA@A?5?$CF?94s?5has?5?$CFd?5legs?5and?5says?5?8?$CFs@ ; `string'
PUBLIC	??_C@_0BL@IPEEOFJP@a?$CLb?5?$DN?5?$CI?$CFg?0?5?$CFg?$CJ?5?5?5a?4b?5?$DN?5?$CFg?6@ ; `string'
PUBLIC	??_C@_04MKOFIGNL@bird@				; `string'
PUBLIC	??_C@_05JMMLJPFM@tweet@				; `string'
PUBLIC	??_C@_03DMIDBMK@dog@				; `string'
PUBLIC	??_C@_04GBEGJDFE@woof@				; `string'
PUBLIC	??_C@_06KAJPLGKE@animal@			; `string'
PUBLIC	??_C@_03KHICJKCI@?4?4?4@			; `string'
PUBLIC	__real@4010000000000000
PUBLIC	__real@4018000000000000
PUBLIC	__real@4026000000000000
EXTRN	__nw__FUl:PROC
EXTRN	__dl__FPv:PROC
EXTRN	printf:PROC
EXTRN	_main:PROC
EXTRN	_fltused:DWORD
;	COMDAT pdata
pdata	SEGMENT
$pdata$main DD	imagerel $LN23
	DD	imagerel $LN23+298
	DD	imagerel $unwind$main
pdata	ENDS
;	COMDAT __real@4026000000000000
CONST	SEGMENT
__real@4026000000000000 DQ 04026000000000000r	; 11
CONST	ENDS
;	COMDAT __real@4018000000000000
CONST	SEGMENT
__real@4018000000000000 DQ 04018000000000000r	; 6
CONST	ENDS
;	COMDAT __real@4010000000000000
CONST	SEGMENT
__real@4010000000000000 DQ 04010000000000000r	; 4
CONST	ENDS
;	COMDAT ??_C@_03KHICJKCI@?4?4?4@
CONST	SEGMENT
??_C@_03KHICJKCI@?4?4?4@ DB '...', 00H			; `string'
CONST	ENDS
;	COMDAT ??_C@_06KAJPLGKE@animal@
CONST	SEGMENT
??_C@_06KAJPLGKE@animal@ DB 'animal', 00H		; `string'
CONST	ENDS
;	COMDAT ??_C@_04GBEGJDFE@woof@
CONST	SEGMENT
??_C@_04GBEGJDFE@woof@ DB 'woof', 00H			; `string'
CONST	ENDS
;	COMDAT ??_C@_03DMIDBMK@dog@
CONST	SEGMENT
??_C@_03DMIDBMK@dog@ DB 'dog', 00H			; `string'
CONST	ENDS
;	COMDAT ??_C@_05JMMLJPFM@tweet@
CONST	SEGMENT
??_C@_05JMMLJPFM@tweet@ DB 'tweet', 00H			; `string'
CONST	ENDS
;	COMDAT ??_C@_04MKOFIGNL@bird@
CONST	SEGMENT
??_C@_04MKOFIGNL@bird@ DB 'bird', 00H			; `string'
CONST	ENDS
;	COMDAT ??_C@_0BL@IPEEOFJP@a?$CLb?5?$DN?5?$CI?$CFg?0?5?$CFg?$CJ?5?5?5a?4b?5?$DN?5?$CFg?6@
CONST	SEGMENT
??_C@_0BL@IPEEOFJP@a?$CLb?5?$DN?5?$CI?$CFg?0?5?$CFg?$CJ?5?5?5a?4b?5?$DN?5?$CFg?6@ DB 'a'
	DB	'+b = (%g, %g)   a.b = %g', 0aH, 00H		; `string'
CONST	ENDS
;	COMDAT ??_C@_0CC@BGFEADKA@A?5?$CF?94s?5has?5?$CFd?5legs?5and?5says?5?8?$CFs@
CONST	SEGMENT
??_C@_0CC@BGFEADKA@A?5?$CF?94s?5has?5?$CFd?5legs?5and?5says?5?8?$CFs@ DB 'A'
	DB	' %-4s has %d legs and says ''%s''', 0aH, 00H ; `string'
CONST	ENDS
;	COMDAT xdata
xdata	SEGMENT
$unwind$main DD	0a1801H
	DD	0c6418H
	DD	0b5418H
	DD	0a3418H
	DD	0f0145218H
	DD	07010e012H
xdata	ENDS
; Function compile flags: /Ogtpy
;	COMDAT kind__3DogFv
_TEXT	SEGMENT
__0this$ = 8
kind__3DogFv PROC					; COMDAT
; File C:\Users\Diana\pg\cfront-3\zz.c
; Line 193
	lea	rax, OFFSET FLAT:??_C@_03DMIDBMK@dog@
; Line 194
	ret	0
kind__3DogFv ENDP
_TEXT	ENDS
; Function compile flags: /Ogtpy
;	COMDAT sound__3DogFv
_TEXT	SEGMENT
__0this$ = 8
sound__3DogFv PROC					; COMDAT
; File C:\Users\Diana\pg\cfront-3\zz.c
; Line 196
	lea	rax, OFFSET FLAT:??_C@_04GBEGJDFE@woof@
; Line 198
	ret	0
sound__3DogFv ENDP
_TEXT	ENDS
; Function compile flags: /Ogtpy
;	COMDAT __dt__3DogFv
_TEXT	SEGMENT
__0this$ = 8
__0__free$ = 16
__dt__3DogFv PROC					; COMDAT
; File C:\Users\Diana\pg\cfront-3\zz.c
; Line 184
	test	rcx, rcx
	je	SHORT $LN4@dt__3DogFv
	mov	rax, QWORD PTR __ptbl_vec__zoo_C_+8
	mov	QWORD PTR [rcx+8], rax
; Line 186
	mov	rax, QWORD PTR __ptbl_vec__zoo_C_
	mov	QWORD PTR [rcx+8], rax
; Line 189
	test	dl, 1
	jne	__dl__FPv
$LN4@dt__3DogFv:
; Line 191
	ret	0
__dt__3DogFv ENDP
_TEXT	ENDS
; Function compile flags: /Ogtpy
;	COMDAT kind__4BirdFv
_TEXT	SEGMENT
__0this$ = 8
kind__4BirdFv PROC					; COMDAT
; File C:\Users\Diana\pg\cfront-3\zz.c
; Line 175
	lea	rax, OFFSET FLAT:??_C@_04MKOFIGNL@bird@
; Line 176
	ret	0
kind__4BirdFv ENDP
_TEXT	ENDS
; Function compile flags: /Ogtpy
;	COMDAT sound__4BirdFv
_TEXT	SEGMENT
__0this$ = 8
sound__4BirdFv PROC					; COMDAT
; File C:\Users\Diana\pg\cfront-3\zz.c
; Line 178
	lea	rax, OFFSET FLAT:??_C@_05JMMLJPFM@tweet@
; Line 180
	ret	0
sound__4BirdFv ENDP
_TEXT	ENDS
; Function compile flags: /Ogtpy
;	COMDAT __dt__4BirdFv
_TEXT	SEGMENT
__0this$ = 8
__0__free$ = 16
__dt__4BirdFv PROC					; COMDAT
; File C:\Users\Diana\pg\cfront-3\zz.c
; Line 166
	test	rcx, rcx
	je	SHORT $LN4@dt__4BirdF
	mov	rax, QWORD PTR __ptbl_vec__zoo_C_+16
	mov	QWORD PTR [rcx+8], rax
; Line 168
	mov	rax, QWORD PTR __ptbl_vec__zoo_C_
	mov	QWORD PTR [rcx+8], rax
; Line 171
	test	dl, 1
	jne	__dl__FPv
$LN4@dt__4BirdF:
; Line 173
	ret	0
__dt__4BirdFv ENDP
_TEXT	ENDS
; Function compile flags: /Ogtpy
;	COMDAT main
_TEXT	SEGMENT
__1zoo$1 = 32
main	PROC						; COMDAT
; File C:\Users\Diana\pg\cfront-3\zz.c
; Line 75
$LN23:
	mov	QWORD PTR [rsp+8], rbx
	mov	QWORD PTR [rsp+16], rbp
	mov	QWORD PTR [rsp+24], rsi
	push	rdi
	push	r14
	push	r15
	sub	rsp, 48					; 00000030H
	call	_main
; Line 87
	mov	ecx, 16
	call	__nw__FUl
	test	rax, rax
	je	SHORT $LN9@main
	mov	rdx, QWORD PTR __ptbl_vec__zoo_C_
	mov	QWORD PTR [rax+8], rdx
	mov	DWORD PTR [rax], 4
	mov	rdx, QWORD PTR __ptbl_vec__zoo_C_+8
	mov	QWORD PTR [rax+8], rdx
$LN9@main:
; Line 91
	mov	ecx, 16
	mov	QWORD PTR __1zoo$1[rsp], rax
	call	__nw__FUl
	mov	r14d, 2
	test	rax, rax
	je	SHORT $LN13@main
	mov	rcx, QWORD PTR __ptbl_vec__zoo_C_
	mov	QWORD PTR [rax+8], rcx
	mov	DWORD PTR [rax], r14d
	mov	rcx, QWORD PTR __ptbl_vec__zoo_C_+16
	mov	QWORD PTR [rax+8], rcx
$LN13@main:
	mov	QWORD PTR __1zoo$1[rsp+8], rax
	lea	r15, QWORD PTR __1zoo$1[rsp]
	npad	11
$LL4@main:
; Line 100
	mov	r10, QWORD PTR [r15]
	mov	rdx, QWORD PTR [r10+8]
	mov	ebp, DWORD PTR [r10]
	movsx	rcx, WORD PTR [rdx+32]
	movsx	rdi, WORD PTR [rdx+48]
	add	rcx, r10
	mov	r9, QWORD PTR [rdx+40]
	add	rdi, r10
	mov	rsi, QWORD PTR [rdx+56]
	call	r9
	mov	rcx, rdi
	mov	rbx, rax
	call	rsi
	mov	rdx, rax
	lea	rcx, OFFSET FLAT:??_C@_0CC@BGFEADKA@A?5?$CF?94s?5has?5?$CFd?5legs?5and?5says?5?8?$CFs@
	mov	r9, rbx
	mov	r8d, ebp
	call	printf
	lea	r15, QWORD PTR [r15+8]
	sub	r14, 1
	jne	SHORT $LL4@main
; Line 125
	movsd	xmm3, QWORD PTR __real@4026000000000000
	lea	rcx, OFFSET FLAT:??_C@_0BL@IPEEOFJP@a?$CLb?5?$DN?5?$CI?$CFg?0?5?$CFg?$CJ?5?5?5a?4b?5?$DN?5?$CFg?6@
	movsd	xmm2, QWORD PTR __real@4018000000000000
	movq	r9, xmm3
	movsd	xmm1, QWORD PTR __real@4010000000000000
	movq	r8, xmm2
	movq	rdx, xmm1
	call	printf
; Line 136
	mov	rbx, QWORD PTR [rsp+80]
	xor	eax, eax
	mov	rbp, QWORD PTR [rsp+88]
	mov	rsi, QWORD PTR [rsp+96]
	add	rsp, 48					; 00000030H
	pop	r15
	pop	r14
	pop	rdi
	ret	0
main	ENDP
_TEXT	ENDS
; Function compile flags: /Ogtpy
;	COMDAT __dt__6AnimalFv
_TEXT	SEGMENT
__0this$ = 8
__0__free$ = 16
__dt__6AnimalFv PROC					; COMDAT
; File C:\Users\Diana\pg\cfront-3\zz.c
; Line 210
	test	rcx, rcx
	je	SHORT $LN4@dt__6Anima
; Line 211
	mov	rax, QWORD PTR __ptbl_vec__zoo_C_
	mov	QWORD PTR [rcx+8], rax
; Line 213
	test	dl, 1
	jne	__dl__FPv
$LN4@dt__6Anima:
; Line 215
	ret	0
__dt__6AnimalFv ENDP
_TEXT	ENDS
; Function compile flags: /Ogtpy
;	COMDAT sound__6AnimalFv
_TEXT	SEGMENT
__0this$ = 8
sound__6AnimalFv PROC					; COMDAT
; File C:\Users\Diana\pg\cfront-3\zz.c
; Line 204
	lea	rax, OFFSET FLAT:??_C@_03KHICJKCI@?4?4?4@
; Line 206
	ret	0
sound__6AnimalFv ENDP
_TEXT	ENDS
; Function compile flags: /Ogtpy
;	COMDAT kind__6AnimalFv
_TEXT	SEGMENT
__0this$ = 8
kind__6AnimalFv PROC					; COMDAT
; File C:\Users\Diana\pg\cfront-3\zz.c
; Line 200
	lea	rax, OFFSET FLAT:??_C@_06KAJPLGKE@animal@
; Line 202
	ret	0
kind__6AnimalFv ENDP
_TEXT	ENDS
END
